target datalayout = "e-m:e-p270:32:32-p271:32:32-p272:64:64-i64:64-i128:128-f80:128-n8:16:32:64-S128"
target triple = "x86_64-pc-linux-gnu"

%struct.trace_set_local_events_struct = type { i32, i64, i32, i32 }

; Function Attrs: inlinehint nounwind sspstrong uwtable
define internal i32 @add_bmethod_events(i32 noundef %0) #5 {
  %2 = alloca i32, align 4
  store i32 %0, ptr %2, align 4, !tbaa !56
  %3 = load i32, ptr %2, align 4, !tbaa !56
  %4 = and i32 %3, 8
  %5 = icmp ne i32 %4, 0
  br i1 %5, label %6, label %9

6:                                                ; preds = %1
  %7 = load i32, ptr %2, align 4, !tbaa !56
  %8 = or i32 %7, 256
  store i32 %8, ptr %2, align 4, !tbaa !56
  br label %9

9:                                                ; preds = %6, %1
  %10 = load i32, ptr %2, align 4, !tbaa !56
  %11 = and i32 %10, 16
  %12 = icmp ne i32 %11, 0
  br i1 %12, label %13, label %16

13:                                               ; preds = %9
  %14 = load i32, ptr %2, align 4, !tbaa !56
  %15 = or i32 %14, 512
  store i32 %15, ptr %2, align 4, !tbaa !56
  br label %16

16:                                               ; preds = %13, %9
  %17 = load i32, ptr %2, align 4, !tbaa !56
  ret i32 %17
}

; Function Attrs: nounwind sspstrong uwtable
define hidden i32 @rb_iseq_add_local_tracepoint_recursively(ptr noundef %0, i32 noundef %1, i64 noundef %2, i32 noundef %3, i1 noundef zeroext %4) #0 {
  %6 = alloca ptr, align 8
  %7 = alloca i32, align 4
  %8 = alloca i64, align 8
  %9 = alloca i32, align 4
  %10 = alloca i8, align 1
  %11 = alloca %struct.trace_set_local_events_struct, align 8
  store ptr %0, ptr %6, align 8, !tbaa !7
  store i32 %1, ptr %7, align 4, !tbaa !56
  store i64 %2, ptr %8, align 8, !tbaa !17
  store i32 %3, ptr %9, align 4, !tbaa !56
  %12 = zext i1 %4 to i8
  store i8 %12, ptr %10, align 1, !tbaa !86
  call void @llvm.lifetime.start.p0(i64 24, ptr %11) #24
  %13 = load i8, ptr %10, align 1, !tbaa !86, !range !87, !noundef !88
  %14 = trunc i8 %13 to i1
  br i1 %14, label %15, label %18

15:                                               ; preds = %5
  %16 = load i32, ptr %7, align 4, !tbaa !56
  %17 = call i32 @add_bmethod_events(i32 noundef %16)
  store i32 %17, ptr %7, align 4, !tbaa !56
  br label %18

18:                                               ; preds = %15, %5
  %19 = load i32, ptr %7, align 4, !tbaa !56
  %20 = getelementptr inbounds nuw %struct.trace_set_local_events_struct, ptr %11, i32 0, i32 0
  store i32 %19, ptr %20, align 8, !tbaa !339
  %21 = load i64, ptr %8, align 8, !tbaa !17
  %22 = getelementptr inbounds nuw %struct.trace_set_local_events_struct, ptr %11, i32 0, i32 1
  store i64 %21, ptr %22, align 8, !tbaa !341
  %23 = load i32, ptr %9, align 4, !tbaa !56
  %24 = getelementptr inbounds nuw %struct.trace_set_local_events_struct, ptr %11, i32 0, i32 2
  store i32 %23, ptr %24, align 8, !tbaa !342
  %25 = getelementptr inbounds nuw %struct.trace_set_local_events_struct, ptr %11, i32 0, i32 3
  store i32 0, ptr %25, align 4, !tbaa !343
  %26 = load ptr, ptr %6, align 8, !tbaa !7
  call void @iseq_add_local_tracepoint_i(ptr noundef %26, ptr noundef %11)
  %27 = getelementptr inbounds nuw %struct.trace_set_local_events_struct, ptr %11, i32 0, i32 3
  %28 = load i32, ptr %27, align 4, !tbaa !343
  call void @llvm.lifetime.end.p0(i64 24, ptr %11) #24
  ret i32 %28
}