; Function Attrs: nounwind sspstrong uwtable
define hidden i32 @rb_iseq_add_local_tracepoint_recursively(ptr noundef %0, i32 noundef %1, i64 noundef %2, i32 noundef %3, i1 noundef zeroext %4) local_unnamed_addr #0 {
  %6 = alloca %struct.trace_set_local_events_struct, align 8
  call void @llvm.lifetime.start.p0(i64 24, ptr nonnull %6) #20
  %7 = shl i32 %1, 5
  %8 = and i32 %7, 768
  %.1.i = select i1 %4, i32 %8, i32 0
  %.0 = or i32 %.1.i, %1
  store i32 %.0, ptr %6, align 8, !tbaa !336
  %9 = getelementptr inbounds nuw i8, ptr %6, i64 8
  store i64 %2, ptr %9, align 8, !tbaa !338
  %10 = getelementptr inbounds nuw i8, ptr %6, i64 16
  store i32 %3, ptr %10, align 8, !tbaa !339
  %11 = getelementptr inbounds nuw i8, ptr %6, i64 20
  store i32 0, ptr %11, align 4, !tbaa !340
  call void @iseq_add_local_tracepoint_i(ptr noundef %0, ptr noundef nonnull %6)
  %12 = load i32, ptr %11, align 4, !tbaa !340
  call void @llvm.lifetime.end.p0(i64 24, ptr nonnull %6) #20
  ret i32 %12
}